; Function Attrs: nounwind uwtable
define internal void @t1_hints_stem(ptr nocapture noundef %0, i32 noundef %1, ptr nocapture noundef readonly %2) #0 {
  %4 = load i64, ptr %2, align 8
  %5 = tail call i64 @FT_RoundFix(i64 noundef %4) #11
  %6 = getelementptr inbounds i8, ptr %2, i64 8
  %7 = load i64, ptr %6, align 8
  %8 = tail call i64 @FT_RoundFix(i64 noundef %7) #11
  %9 = getelementptr inbounds i8, ptr %0, i64 8
  %10 = load i32, ptr %9, align 8
  %.not.i = icmp eq i32 %10, 0
  br i1 %.not.i, label %.lr.ph.i, label %ps_hints_stem.exit

.lr.ph.i:                                         ; preds = %3
  %11 = lshr i64 %8, 16
  %12 = lshr i64 %5, 16
  %13 = icmp ne i32 %1, 0
  %14 = getelementptr inbounds i8, ptr %0, i64 24
  %15 = zext i1 %13 to i64
  %16 = getelementptr inbounds [2 x %struct.PS_DimensionRec_], ptr %14, i64 0, i64 %15
  %17 = load ptr, ptr %0, align 8
  %18 = trunc i64 %12 to i32
  %19 = trunc i64 %11 to i32
  %20 = tail call fastcc i32 @ps_dimension_add_t1stem(ptr noundef nonnull %16, i32 noundef %18, i32 noundef %19, ptr noundef %17, ptr noundef null)
  %.not19.i = icmp eq i32 %20, 0
  br i1 %.not19.i, label %ps_hints_stem.exit, label %21

21:                                               ; preds = %.lr.ph.i
  store i32 %20, ptr %9, align 8
  br label %ps_hints_stem.exit

ps_hints_stem.exit:                               ; preds = %.lr.ph.i, %3, %21
  ret void
}